target datalayout = "e-m:e-p270:32:32-p271:32:32-p272:64:64-i64:64-i128:128-f80:128-n8:16:32:64-S128"
target triple = "x86_64-pc-linux-gnu"

%struct.IntraX8DSPContext = type { ptr, ptr, [12 x ptr], ptr }

; Function Attrs: cold nounwind optsize uwtable
define void @ff_intrax8dsp_init(ptr noundef %0) #0 {
  %2 = alloca ptr, align 8
  store ptr %0, ptr %2, align 8, !tbaa !4
  %3 = load ptr, ptr %2, align 8, !tbaa !4
  %4 = getelementptr inbounds nuw %struct.IntraX8DSPContext, ptr %3, i32 0, i32 1
  store ptr @x8_h_loop_filter, ptr %4, align 8, !tbaa !9
  %5 = load ptr, ptr %2, align 8, !tbaa !4
  %6 = getelementptr inbounds nuw %struct.IntraX8DSPContext, ptr %5, i32 0, i32 0
  store ptr @x8_v_loop_filter, ptr %6, align 8, !tbaa !11
  %7 = load ptr, ptr %2, align 8, !tbaa !4
  %8 = getelementptr inbounds nuw %struct.IntraX8DSPContext, ptr %7, i32 0, i32 3
  store ptr @x8_setup_spatial_compensation, ptr %8, align 8, !tbaa !12
  %9 = load ptr, ptr %2, align 8, !tbaa !4
  %10 = getelementptr inbounds nuw %struct.IntraX8DSPContext, ptr %9, i32 0, i32 2
  %11 = getelementptr inbounds [12 x ptr], ptr %10, i64 0, i64 0
  store ptr @spatial_compensation_0, ptr %11, align 8, !tbaa !13
  %12 = load ptr, ptr %2, align 8, !tbaa !4
  %13 = getelementptr inbounds nuw %struct.IntraX8DSPContext, ptr %12, i32 0, i32 2
  %14 = getelementptr inbounds [12 x ptr], ptr %13, i64 0, i64 1
  store ptr @spatial_compensation_1, ptr %14, align 8, !tbaa !13
  %15 = load ptr, ptr %2, align 8, !tbaa !4
  %16 = getelementptr inbounds nuw %struct.IntraX8DSPContext, ptr %15, i32 0, i32 2
  %17 = getelementptr inbounds [12 x ptr], ptr %16, i64 0, i64 2
  store ptr @spatial_compensation_2, ptr %17, align 8, !tbaa !13
  %18 = load ptr, ptr %2, align 8, !tbaa !4
  %19 = getelementptr inbounds nuw %struct.IntraX8DSPContext, ptr %18, i32 0, i32 2
  %20 = getelementptr inbounds [12 x ptr], ptr %19, i64 0, i64 3
  store ptr @spatial_compensation_3, ptr %20, align 8, !tbaa !13
  %21 = load ptr, ptr %2, align 8, !tbaa !4
  %22 = getelementptr inbounds nuw %struct.IntraX8DSPContext, ptr %21, i32 0, i32 2
  %23 = getelementptr inbounds [12 x ptr], ptr %22, i64 0, i64 4
  store ptr @spatial_compensation_4, ptr %23, align 8, !tbaa !13
  %24 = load ptr, ptr %2, align 8, !tbaa !4
  %25 = getelementptr inbounds nuw %struct.IntraX8DSPContext, ptr %24, i32 0, i32 2
  %26 = getelementptr inbounds [12 x ptr], ptr %25, i64 0, i64 5
  store ptr @spatial_compensation_5, ptr %26, align 8, !tbaa !13
  %27 = load ptr, ptr %2, align 8, !tbaa !4
  %28 = getelementptr inbounds nuw %struct.IntraX8DSPContext, ptr %27, i32 0, i32 2
  %29 = getelementptr inbounds [12 x ptr], ptr %28, i64 0, i64 6
  store ptr @spatial_compensation_6, ptr %29, align 8, !tbaa !13
  %30 = load ptr, ptr %2, align 8, !tbaa !4
  %31 = getelementptr inbounds nuw %struct.IntraX8DSPContext, ptr %30, i32 0, i32 2
  %32 = getelementptr inbounds [12 x ptr], ptr %31, i64 0, i64 7
  store ptr @spatial_compensation_7, ptr %32, align 8, !tbaa !13
  %33 = load ptr, ptr %2, align 8, !tbaa !4
  %34 = getelementptr inbounds nuw %struct.IntraX8DSPContext, ptr %33, i32 0, i32 2
  %35 = getelementptr inbounds [12 x ptr], ptr %34, i64 0, i64 8
  store ptr @spatial_compensation_8, ptr %35, align 8, !tbaa !13
  %36 = load ptr, ptr %2, align 8, !tbaa !4
  %37 = getelementptr inbounds nuw %struct.IntraX8DSPContext, ptr %36, i32 0, i32 2
  %38 = getelementptr inbounds [12 x ptr], ptr %37, i64 0, i64 9
  store ptr @spatial_compensation_9, ptr %38, align 8, !tbaa !13
  %39 = load ptr, ptr %2, align 8, !tbaa !4
  %40 = getelementptr inbounds nuw %struct.IntraX8DSPContext, ptr %39, i32 0, i32 2
  %41 = getelementptr inbounds [12 x ptr], ptr %40, i64 0, i64 10
  store ptr @spatial_compensation_10, ptr %41, align 8, !tbaa !13
  %42 = load ptr, ptr %2, align 8, !tbaa !4
  %43 = getelementptr inbounds nuw %struct.IntraX8DSPContext, ptr %42, i32 0, i32 2
  %44 = getelementptr inbounds [12 x ptr], ptr %43, i64 0, i64 11
  store ptr @spatial_compensation_11, ptr %44, align 8, !tbaa !13
  ret void
}