; Function Attrs: cold mustprogress nofree norecurse nosync nounwind optsize willreturn memory(argmem: write) uwtable
define void @ff_intrax8dsp_init(ptr noundef writeonly captures(none) initializes((0, 120)) %0) local_unnamed_addr #0 {
  %2 = getelementptr inbounds nuw i8, ptr %0, i64 8
  store ptr @x8_h_loop_filter, ptr %2, align 8, !tbaa !4
  store ptr @x8_v_loop_filter, ptr %0, align 8, !tbaa !9
  %3 = getelementptr inbounds nuw i8, ptr %0, i64 112
  store ptr @x8_setup_spatial_compensation, ptr %3, align 8, !tbaa !10
  %4 = getelementptr inbounds nuw i8, ptr %0, i64 16
  store ptr @spatial_compensation_0, ptr %4, align 8, !tbaa !11
  %5 = getelementptr inbounds nuw i8, ptr %0, i64 24
  store ptr @spatial_compensation_1, ptr %5, align 8, !tbaa !11
  %6 = getelementptr inbounds nuw i8, ptr %0, i64 32
  store ptr @spatial_compensation_2, ptr %6, align 8, !tbaa !11
  %7 = getelementptr inbounds nuw i8, ptr %0, i64 40
  store ptr @spatial_compensation_3, ptr %7, align 8, !tbaa !11
  %8 = getelementptr inbounds nuw i8, ptr %0, i64 48
  store ptr @spatial_compensation_4, ptr %8, align 8, !tbaa !11
  %9 = getelementptr inbounds nuw i8, ptr %0, i64 56
  store ptr @spatial_compensation_5, ptr %9, align 8, !tbaa !11
  %10 = getelementptr inbounds nuw i8, ptr %0, i64 64
  store ptr @spatial_compensation_6, ptr %10, align 8, !tbaa !11
  %11 = getelementptr inbounds nuw i8, ptr %0, i64 72
  store ptr @spatial_compensation_7, ptr %11, align 8, !tbaa !11
  %12 = getelementptr inbounds nuw i8, ptr %0, i64 80
  store ptr @spatial_compensation_8, ptr %12, align 8, !tbaa !11
  %13 = getelementptr inbounds nuw i8, ptr %0, i64 88
  store ptr @spatial_compensation_9, ptr %13, align 8, !tbaa !11
  %14 = getelementptr inbounds nuw i8, ptr %0, i64 96
  store ptr @spatial_compensation_10, ptr %14, align 8, !tbaa !11
  %15 = getelementptr inbounds nuw i8, ptr %0, i64 104
  store ptr @spatial_compensation_11, ptr %15, align 8, !tbaa !11
  ret void
}